target datalayout = "e-m:e-p270:32:32-p271:32:32-p272:64:64-i64:64-i128:128-f80:128-n8:16:32:64-S128"
target triple = "x86_64-unknown-linux-gnu"

%"class.v8::IndirectHandleBase" = type { ptr }
%"class.node::MemoryRetainer" = type { ptr }
%"class.node::ListNode" = type { ptr, ptr }
%"class.node::HandleWrap" = type { %"class.node::AsyncWrap", i32, %"class.node::ListNode", ptr }
%"class.node::AsyncWrap" = type { %"class.node::BaseObject", i32, i8, double, double }
%"class.node::BaseObject" = type { %"class.node::MemoryRetainer", %"class.v8::Global.261", ptr, ptr }
%"class.v8::Global.261" = type { %"class.v8::PersistentBase.262" }
%"class.v8::PersistentBase.262" = type { %"class.v8::IndirectHandleBase" }

@_ZTVN4node10HandleWrapE = external unnamed_addr constant { [22 x ptr] }, align 8

; Function Attrs: mustprogress nounwind uwtable
define linkonce_odr dso_local void @_ZN4node8ListNodeINS_10HandleWrapEE6RemoveEv(ptr noundef nonnull align 8 dereferenceable(16) %this) #4 comdat align 2 {
entry:
  %this.addr = alloca ptr, align 8
  store ptr %this, ptr %this.addr, align 8
  %this1 = load ptr, ptr %this.addr, align 8
  %next_ = getelementptr inbounds %"class.node::ListNode", ptr %this1, i32 0, i32 1
  %0 = load ptr, ptr %next_, align 8
  %prev_ = getelementptr inbounds %"class.node::ListNode", ptr %this1, i32 0, i32 0
  %1 = load ptr, ptr %prev_, align 8
  %next_2 = getelementptr inbounds %"class.node::ListNode", ptr %1, i32 0, i32 1
  store ptr %0, ptr %next_2, align 8
  %prev_3 = getelementptr inbounds %"class.node::ListNode", ptr %this1, i32 0, i32 0
  %2 = load ptr, ptr %prev_3, align 8
  %next_4 = getelementptr inbounds %"class.node::ListNode", ptr %this1, i32 0, i32 1
  %3 = load ptr, ptr %next_4, align 8
  %prev_5 = getelementptr inbounds %"class.node::ListNode", ptr %3, i32 0, i32 0
  store ptr %2, ptr %prev_5, align 8
  %prev_6 = getelementptr inbounds %"class.node::ListNode", ptr %this1, i32 0, i32 0
  store ptr %this1, ptr %prev_6, align 8
  %next_7 = getelementptr inbounds %"class.node::ListNode", ptr %this1, i32 0, i32 1
  store ptr %this1, ptr %next_7, align 8
  ret void
}

; Function Attrs: mustprogress nounwind uwtable
define linkonce_odr dso_local void @_ZN4node8ListNodeINS_10HandleWrapEED2Ev(ptr noundef nonnull align 8 dereferenceable(16) %this) unnamed_addr #4 comdat align 2 {
entry:
  %this.addr = alloca ptr, align 8
  store ptr %this, ptr %this.addr, align 8
  %this1 = load ptr, ptr %this.addr, align 8
  call void @_ZN4node8ListNodeINS_10HandleWrapEE6RemoveEv(ptr noundef nonnull align 8 dereferenceable(16) %this1)
  ret void
}

; Function Attrs: mustprogress nounwind uwtable
define linkonce_odr dso_local void @_ZN4node10HandleWrapD2Ev(ptr noundef nonnull align 8 dereferenceable(88) %this) unnamed_addr #4 comdat align 2 {
entry:
  %this.addr = alloca ptr, align 8
  store ptr %this, ptr %this.addr, align 8
  %this1 = load ptr, ptr %this.addr, align 8
  store ptr getelementptr inbounds ({ [22 x ptr] }, ptr @_ZTVN4node10HandleWrapE, i32 0, i32 0, i32 2), ptr %this1, align 8
  %handle_wrap_queue_ = getelementptr inbounds %"class.node::HandleWrap", ptr %this1, i32 0, i32 2
  call void @_ZN4node8ListNodeINS_10HandleWrapEED2Ev(ptr noundef nonnull align 8 dereferenceable(16) %handle_wrap_queue_) #3
  call void @_ZN4node9AsyncWrapD2Ev(ptr noundef nonnull align 8 dereferenceable(56) %this1) #3
  ret void
}

; Function Attrs: mustprogress nounwind uwtable
define internal void @_ZN4node12_GLOBAL__N_111ProcessWrapD2Ev(ptr noundef nonnull align 8 dereferenceable(224) %this) unnamed_addr #4 align 2 {
entry:
  %this.addr = alloca ptr, align 8
  store ptr %this, ptr %this.addr, align 8
  %this1 = load ptr, ptr %this.addr, align 8
  call void @_ZN4node10HandleWrapD2Ev(ptr noundef nonnull align 8 dereferenceable(88) %this1) #3
  ret void
}